Certificate:
    Data:
        Version: 3 (0x2)
        Serial Number: 1 (0x1)
        Signature Algorithm: sha256WithRSAEncryption
        Issuer: C=SE, ST=Stockholm, L=Stockholm, O=Ericsson, OU=OTP, CN=OCSP/emailAddress=andy@erlang.org
        Validity
            Not Before: Feb 11 12:23:00 2020 GMT
            Not After : Feb 10 12:23:00 2021 GMT
        Subject: C=SE, ST=Stockholm, O=Ericsson, OU=OTP, CN=OTP/emailAddress=andy@erlang.org
        Subject Public Key Info:
            Public Key Algorithm: rsaEncryption
                RSA Public-Key: (2048 bit)
                Modulus:
                    00:b8:1c:a4:7a:90:b4:87:53:37:df:8c:db:4b:6c:
                    76:bf:42:cc:ac:12:19:b4:6b:87:84:43:b4:66:f9:
                    22:82:a1:66:01:ea:28:71:fa:ca:74:0f:58:d8:b3:
                    b0:31:47:5d:69:6f:29:a9:c3:d1:91:ed:c3:b7:5c:
                    d9:5f:15:94:02:ee:d7:f7:6a:73:7e:13:ab:f0:8a:
                    6b:e9:e5:d9:8f:a6:c9:9f:ed:19:4c:6f:20:e2:60:
                    71:e5:2b:f6:c4:f0:6a:1d:55:f0:25:e4:53:9a:4f:
                    2a:3a:c4:39:94:0b:b3:07:ab:a7:d2:a8:bd:9e:00:
                    3f:41:20:18:50:d5:7e:19:76:e2:df:bc:49:ef:64:
                    89:84:16:47:ad:e0:ec:f6:3e:4d:a3:2a:0c:05:32:
                    08:de:20:25:ce:b2:29:21:ab:74:c4:b6:ce:ca:ae:
                    a4:fa:ed:6e:f1:f2:86:2e:0c:9c:2e:dc:33:e2:1b:
                    e8:85:2f:ae:33:b1:fa:22:80:f6:60:f8:36:8f:a7:
                    f7:05:05:b1:f7:81:1e:92:1e:6a:ca:79:0c:0b:65:
                    fb:5f:fa:8d:3e:30:95:c9:03:55:35:6c:7f:6d:41:
                    12:fe:b6:e5:75:61:b1:ad:fc:b9:d1:6d:0c:f9:6a:
                    c5:b0:9a:eb:a6:71:b9:b6:99:c7:90:c5:00:8e:c9:
                    a8:cb
                Exponent: 65537 (0x10001)
        X509v3 extensions:
            Authority Information Access: 
                OCSP - URI:http://127.0.0.1:8080

            X509v3 Basic Constraints: 
                CA:FALSE
            Netscape Comment: 
                OpenSSL Generated Certificate
            X509v3 Subject Key Identifier: 
                C8:68:21:95:5B:72:D6:63:D8:E2:07:B5:A3:AD:AF:A7:80:D0:65:15
            X509v3 Authority Key Identifier: 
                keyid:14:3A:0B:8C:92:BE:61:92:2F:F1:E4:1A:C7:0A:0D:C1:07:AD:D1:77

    Signature Algorithm: sha256WithRSAEncryption
         e0:45:b4:27:b2:44:8b:21:84:4b:c3:da:7c:bb:a4:c7:ed:49:
         e6:5d:79:9c:14:ab:41:63:59:61:69:66:ce:ab:ca:25:bd:0f:
         ae:67:ad:34:ba:b3:26:22:34:ab:aa:a1:00:cd:91:16:b7:98:
         f3:1f:53:b1:c0:bb:f9:65:d6:95:d4:12:46:1d:bd:42:21:d2:
         41:90:82:b2:d0:3e:98:1b:b1:84:05:c8:57:91:3f:95:0b:b9:
         b9:b9:45:92:c1:20:4d:5e:03:3b:7d:fa:ab:5a:a9:c8:f0:d4:
         d1:01:24:b1:43:e1:07:fb:d2:2b:c5:fa:ec:f0:13:d9:01:ef:
         e7:72
-----BEGIN CERTIFICATE-----
MIIDoDCCAwmgAwIBAgIBATANBgkqhkiG9w0BAQsFADCBhTELMAkGA1UEBhMCU0Ux
EjAQBgNVBAgMCVN0b2NraG9sbTESMBAGA1UEBwwJU3RvY2tob2xtMREwDwYDVQQK
DAhFcmljc3NvbjEMMAoGA1UECwwDT1RQMQ0wCwYDVQQDDARPQ1NQMR4wHAYJKoZI
hvcNAQkBFg9hbmR5QGVybGFuZy5vcmcwHhcNMjAwMjExMTIyMzAwWhcNMjEwMjEw
MTIyMzAwWjBwMQswCQYDVQQGEwJTRTESMBAGA1UECAwJU3RvY2tob2xtMREwDwYD
VQQKDAhFcmljc3NvbjEMMAoGA1UECwwDT1RQMQwwCgYDVQQDDANPVFAxHjAcBgkq
hkiG9w0BCQEWD2FuZHlAZXJsYW5nLm9yZzCCASIwDQYJKoZIhvcNAQEBBQADggEP
ADCCAQoCggEBALgcpHqQtIdTN9+M20tsdr9CzKwSGbRrh4RDtGb5IoKhZgHqKHH6
ynQPWNizsDFHXWlvKanD0ZHtw7dc2V8VlALu1/dqc34Tq/CKa+nl2Y+myZ/tGUxv
IOJgceUr9sTwah1V8CXkU5pPKjrEOZQLswerp9KovZ4AP0EgGFDVfhl24t+8Se9k
iYQWR63g7PY+TaMqDAUyCN4gJc6yKSGrdMS2zsqupPrtbvHyhi4MnC7cM+Ib6IUv
rjOx+iKA9mD4No+n9wUFsfeBHpIeasp5DAtl+1/6jT4wlckDVTVsf21BEv625XVh
sa38udFtDPlqxbCa66ZxubaZx5DFAI7JqMsCAwEAAaOBrzCBrDAxBggrBgEFBQcB
AQQlMCMwIQYIKwYBBQUHMAGGFWh0dHA6Ly8xMjcuMC4wLjE6ODA4MDAJBgNVHRME
AjAAMCwGCWCGSAGG+EIBDQQfFh1PcGVuU1NMIEdlbmVyYXRlZCBDZXJ0aWZpY2F0
ZTAdBgNVHQ4EFgQUyGghlVty1mPY4ge1o62vp4DQZRUwHwYDVR0jBBgwFoAUFDoL
jJK+YZIv8eQaxwoNwQet0XcwDQYJKoZIhvcNAQELBQADgYEA4EW0J7JEiyGES8Pa
fLukx+1J5l15nBSrQWNZYWlmzqvKJb0PrmetNLqzJiI0q6qhAM2RFreY8x9TscC7
+WXWldQSRh29QiHSQZCCstA+mBuxhAXIV5E/lQu5ublFksEgTV4DO336q1qpyPDU
0QEksUPhB/vSK8X67PAT2QHv53I=
-----END CERTIFICATE-----
